target datalayout = "e-m:e-p270:32:32-p271:32:32-p272:64:64-i64:64-i128:128-f80:128-n8:16:32:64-S128"
target triple = "x86_64-pc-linux-gnu"

%struct.ARKodeMemRec = type { ptr, double, ptr, i32, i32, double, double, ptr, i32, double, ptr, i32, i32, ptr, ptr, i32, ptr, ptr, i32, ptr, ptr, ptr, ptr, ptr, ptr, ptr, ptr, ptr, ptr, ptr, ptr, ptr, ptr, ptr, i32, ptr, ptr, i32, ptr, i32, ptr, ptr, ptr, ptr, ptr, ptr, ptr, ptr, ptr, ptr, ptr, ptr, ptr, ptr, ptr, ptr, ptr, ptr, ptr, ptr, ptr, ptr, ptr, ptr, ptr, ptr, i32, ptr, ptr, ptr, ptr, ptr, ptr, ptr, i32, ptr, ptr, ptr, i32, ptr, ptr, ptr, ptr, ptr, ptr, ptr, i32, i32, i32, i32, double, double, double, double, double, double, double, double, double, double, i32, ptr, i64, i32, i32, i32, i32, i64, i64, i32, i64, i64, i64, i64, i64, i64, i64, double, double, double, double, double, i32, double, double, i32, i32, i32, i32, i32, i32, i32, i32, ptr, i32, ptr, ptr, ptr, ptr, i32, i32, i32 }
%struct.ARKodeSPRKStepMemRec = type { ptr, i32, ptr, ptr, ptr, ptr, i64, i64, i32 }

@__func__.SPRKStepSetUseCompensatedSums = private unnamed_addr constant [30 x i8] c"SPRKStepSetUseCompensatedSums\00", align 1

; Function Attrs: nounwind uwtable
define i32 @SPRKStepSetUseCompensatedSums(ptr noundef %0, i32 noundef %1) #0 {
  %3 = alloca i32, align 4
  %4 = alloca ptr, align 8
  %5 = alloca i32, align 4
  %6 = alloca ptr, align 8
  %7 = alloca ptr, align 8
  %8 = alloca i32, align 4
  %9 = alloca i32, align 4
  store ptr %0, ptr %4, align 8, !tbaa !3
  store i32 %1, ptr %5, align 4, !tbaa !7
  call void @llvm.lifetime.start.p0(i64 8, ptr %6) #4
  store ptr null, ptr %6, align 8, !tbaa !9
  call void @llvm.lifetime.start.p0(i64 8, ptr %7) #4
  store ptr null, ptr %7, align 8, !tbaa !11
  call void @llvm.lifetime.start.p0(i64 4, ptr %8) #4
  store i32 0, ptr %8, align 4, !tbaa !7
  %10 = load ptr, ptr %4, align 8, !tbaa !3
  %11 = call i32 @sprkStep_AccessARKODEStepMem(ptr noundef %10, ptr noundef @__func__.SPRKStepSetUseCompensatedSums, ptr noundef %6, ptr noundef %7)
  store i32 %11, ptr %8, align 4, !tbaa !7
  %12 = load i32, ptr %8, align 4, !tbaa !7
  %13 = icmp ne i32 %12, 0
  br i1 %13, label %14, label %16

14:                                               ; preds = %2
  %15 = load i32, ptr %8, align 4, !tbaa !7
  store i32 %15, ptr %3, align 4
  store i32 1, ptr %9, align 4
  br label %50

16:                                               ; preds = %2
  %17 = load i32, ptr %5, align 4, !tbaa !7
  %18 = icmp ne i32 %17, 0
  br i1 %18, label %19, label %43

19:                                               ; preds = %16
  %20 = load ptr, ptr %6, align 8, !tbaa !9
  %21 = getelementptr inbounds nuw %struct.ARKodeMemRec, ptr %20, i32 0, i32 139
  store i32 1, ptr %21, align 8, !tbaa !13
  %22 = load ptr, ptr %6, align 8, !tbaa !9
  %23 = getelementptr inbounds nuw %struct.ARKodeMemRec, ptr %22, i32 0, i32 22
  store ptr @sprkStep_TakeStep_Compensated, ptr %23, align 8, !tbaa !23
  %24 = load ptr, ptr %7, align 8, !tbaa !11
  %25 = getelementptr inbounds nuw %struct.ARKodeSPRKStepMemRec, ptr %24, i32 0, i32 3
  %26 = load ptr, ptr %25, align 8, !tbaa !24
  %27 = icmp ne ptr %26, null
  br i1 %27, label %42, label %28

28:                                               ; preds = %19
  %29 = load ptr, ptr %6, align 8, !tbaa !9
  %30 = load ptr, ptr %6, align 8, !tbaa !9
  %31 = getelementptr inbounds nuw %struct.ARKodeMemRec, ptr %30, i32 0, i32 76
  %32 = load ptr, ptr %31, align 8, !tbaa !27
  %33 = load ptr, ptr %7, align 8, !tbaa !11
  %34 = getelementptr inbounds nuw %struct.ARKodeSPRKStepMemRec, ptr %33, i32 0, i32 3
  %35 = call i32 @arkAllocVec(ptr noundef %29, ptr noundef %32, ptr noundef %34)
  %36 = icmp ne i32 %35, 0
  br i1 %36, label %38, label %37

37:                                               ; preds = %28
  store i32 -20, ptr %3, align 4
  store i32 1, ptr %9, align 4
  br label %50

38:                                               ; preds = %28
  %39 = load ptr, ptr %7, align 8, !tbaa !11
  %40 = getelementptr inbounds nuw %struct.ARKodeSPRKStepMemRec, ptr %39, i32 0, i32 3
  %41 = load ptr, ptr %40, align 8, !tbaa !24
  call void @N_VConst(double noundef 0.000000e+00, ptr noundef %41)
  br label %42

42:                                               ; preds = %38, %19
  br label %48

43:                                               ; preds = %16
  %44 = load ptr, ptr %6, align 8, !tbaa !9
  %45 = getelementptr inbounds nuw %struct.ARKodeMemRec, ptr %44, i32 0, i32 139
  store i32 0, ptr %45, align 8, !tbaa !13
  %46 = load ptr, ptr %6, align 8, !tbaa !9
  %47 = getelementptr inbounds nuw %struct.ARKodeMemRec, ptr %46, i32 0, i32 22
  store ptr @sprkStep_TakeStep, ptr %47, align 8, !tbaa !23
  br label %48

48:                                               ; preds = %43, %42
  %49 = load i32, ptr %8, align 4, !tbaa !7
  store i32 %49, ptr %3, align 4
  store i32 1, ptr %9, align 4
  br label %50

50:                                               ; preds = %48, %37, %14
  call void @llvm.lifetime.end.p0(i64 4, ptr %8) #4
  call void @llvm.lifetime.end.p0(i64 8, ptr %7) #4
  call void @llvm.lifetime.end.p0(i64 8, ptr %6) #4
  %51 = load i32, ptr %3, align 4
  ret i32 %51
}