; Function Attrs: nounwind uwtable
define i32 @SPRKStepSetUseCompensatedSums(ptr noundef %0, i32 noundef %1) local_unnamed_addr #0 {
  %3 = alloca ptr, align 8
  %4 = alloca ptr, align 8
  call void @llvm.lifetime.start.p0(i64 8, ptr nonnull %3) #5
  store ptr null, ptr %3, align 8, !tbaa !3
  call void @llvm.lifetime.start.p0(i64 8, ptr nonnull %4) #5
  store ptr null, ptr %4, align 8, !tbaa !8
  %5 = call i32 @sprkStep_AccessARKODEStepMem(ptr noundef %0, ptr noundef nonnull @__func__.SPRKStepSetUseCompensatedSums, ptr noundef nonnull %3, ptr noundef nonnull %4) #5
  %.not = icmp eq i32 %5, 0
  br i1 %.not, label %6, label %23

6:                                                ; preds = %2
  %.not6 = icmp eq i32 %1, 0
  %7 = load ptr, ptr %3, align 8, !tbaa !3
  %8 = getelementptr inbounds nuw i8, ptr %7, i64 1032
  %9 = getelementptr inbounds nuw i8, ptr %7, i64 160
  br i1 %.not6, label %22, label %10

10:                                               ; preds = %6
  store i32 1, ptr %8, align 8, !tbaa !10
  store ptr @sprkStep_TakeStep_Compensated, ptr %9, align 8, !tbaa !21
  %11 = load ptr, ptr %4, align 8, !tbaa !8
  %12 = getelementptr inbounds nuw i8, ptr %11, i64 24
  %13 = load ptr, ptr %12, align 8, !tbaa !22
  %.not7 = icmp eq ptr %13, null
  br i1 %.not7, label %14, label %23

14:                                               ; preds = %10
  %15 = getelementptr inbounds nuw i8, ptr %7, i64 592
  %16 = load ptr, ptr %15, align 8, !tbaa !25
  %17 = call i32 @arkAllocVec(ptr noundef nonnull %7, ptr noundef %16, ptr noundef nonnull %12) #5
  %.not8 = icmp eq i32 %17, 0
  br i1 %.not8, label %23, label %18

18:                                               ; preds = %14
  %19 = load ptr, ptr %4, align 8, !tbaa !8
  %20 = getelementptr inbounds nuw i8, ptr %19, i64 24
  %21 = load ptr, ptr %20, align 8, !tbaa !22
  call void @N_VConst(double noundef 0.000000e+00, ptr noundef %21) #5
  br label %23

22:                                               ; preds = %6
  store i32 0, ptr %8, align 8, !tbaa !10
  store ptr @sprkStep_TakeStep, ptr %9, align 8, !tbaa !21
  br label %23

23:                                               ; preds = %22, %18, %10, %14, %2
  %.0 = phi i32 [ %5, %2 ], [ -20, %14 ], [ 0, %10 ], [ 0, %18 ], [ 0, %22 ]
  call void @llvm.lifetime.end.p0(i64 8, ptr nonnull %4) #5
  call void @llvm.lifetime.end.p0(i64 8, ptr nonnull %3) #5
  ret i32 %.0
}